target datalayout = "e-m:e-p270:32:32-p271:32:32-p272:64:64-i64:64-i128:128-f80:128-n8:16:32:64-S128"
target triple = "x86_64-pc-linux-gnu"

%struct.job_step_info_response_msg = type { i64, i32, ptr, ptr }
%struct.slurm_msg = type { %struct.sockaddr_storage, ptr, i32, i32, i32, i8, i32, i8, i32, ptr, ptr, i32, ptr, ptr, i16, i8, i16, i16, %struct.forward, ptr, %struct.sockaddr_storage, ptr }
%struct.forward = type { %struct.slurm_node_alias_addrs_t, i16, i16, ptr, i32, i16, i16 }
%struct.slurm_node_alias_addrs_t = type { i64, ptr, ptr, i32, ptr }
%struct.sockaddr_storage = type { i16, [118 x i8], i64 }
%struct.return_code_msg = type { i32 }
%struct.slurmdb_cluster_rec = type { ptr, i16, i64, %struct.sockaddr_storage, ptr, i32, i16, ptr, i16, %struct.slurmdb_cluster_fed_t, i32, %union.pthread_mutex_t, ptr, ptr, ptr, i16, ptr, ptr }
%struct.slurmdb_cluster_fed_t = type { ptr, i32, ptr, ptr, ptr, i32, i8, i8 }
%union.pthread_mutex_t = type { %struct.__pthread_mutex_s }
%struct.__pthread_mutex_s = type { i32, i32, i32, i32, i32, i16, i16, %struct.__pthread_internal_list }
%struct.__pthread_internal_list = type { ptr, ptr }
%struct.load_step_req_struct = type { ptr, i8, ptr, ptr }
%struct.load_step_resp_struct = type { i8, ptr }

@.str.27 = private unnamed_addr constant [16 x i8] c"job_step_info.c\00", align 1
@.str.42 = private unnamed_addr constant [51 x i8] c"Error reading step information from cluster %s: %s\00", align 1
@__func__._load_step_thread = private unnamed_addr constant [18 x i8] c"_load_step_thread\00", align 1

; Function Attrs: nounwind uwtable
define internal i32 @_load_cluster_steps(ptr noundef %0, ptr noundef %1, ptr noundef %2) #0 {
  %4 = alloca i32, align 4
  %5 = alloca ptr, align 8
  %6 = alloca ptr, align 8
  %7 = alloca ptr, align 8
  %8 = alloca %struct.slurm_msg, align 8
  %9 = alloca i32, align 4
  %10 = alloca i32, align 4
  store ptr %0, ptr %5, align 8
  store ptr %1, ptr %6, align 8
  store ptr %2, ptr %7, align 8
  call void @llvm.lifetime.start.p0(i64 424, ptr %8) #8
  call void @llvm.lifetime.start.p0(i64 4, ptr %9) #8
  store i32 0, ptr %9, align 4
  call void @slurm_msg_t_init(ptr noundef %8)
  %11 = load ptr, ptr %6, align 8
  store ptr null, ptr %11, align 8
  %12 = load ptr, ptr %5, align 8
  %13 = load ptr, ptr %7, align 8
  %14 = call i32 @slurm_send_recv_controller_msg(ptr noundef %12, ptr noundef %8, ptr noundef %13)
  %15 = icmp slt i32 %14, 0
  br i1 %15, label %16, label %17

16:                                               ; preds = %3
  store i32 -1, ptr %4, align 4
  store i32 1, ptr %10, align 4
  br label %62

17:                                               ; preds = %3
  %18 = getelementptr inbounds nuw %struct.slurm_msg, ptr %8, i32 0, i32 16
  %19 = load i16, ptr %18, align 4
  %20 = zext i16 %19 to i32
  switch i32 %20, label %47 [
    i32 2006, label %21
    i32 8001, label %40
  ]

21:                                               ; preds = %17
  %22 = getelementptr inbounds nuw %struct.slurm_msg, ptr %8, i32 0, i32 13
  %23 = load ptr, ptr %22, align 8
  %24 = load ptr, ptr %6, align 8
  store ptr %23, ptr %24, align 8
  %25 = getelementptr inbounds nuw %struct.slurm_msg, ptr %8, i32 0, i32 13
  store ptr null, ptr %25, align 8
  %26 = load ptr, ptr %6, align 8
  %27 = load ptr, ptr %26, align 8
  %28 = getelementptr inbounds nuw %struct.job_step_info_response_msg, ptr %27, i32 0, i32 3
  %29 = load ptr, ptr %28, align 8
  %30 = icmp ne ptr %29, null
  br i1 %30, label %31, label %39

31:                                               ; preds = %21
  %32 = load ptr, ptr %6, align 8
  %33 = load ptr, ptr %32, align 8
  %34 = getelementptr inbounds nuw %struct.job_step_info_response_msg, ptr %33, i32 0, i32 3
  %35 = load ptr, ptr %34, align 8
  %36 = load ptr, ptr %6, align 8
  %37 = load ptr, ptr %36, align 8
  %38 = call i32 @list_for_each(ptr noundef %35, ptr noundef @_get_stepmgr_steps, ptr noundef %37)
  br label %39

39:                                               ; preds = %31, %21
  br label %48

40:                                               ; preds = %17
  %41 = getelementptr inbounds nuw %struct.slurm_msg, ptr %8, i32 0, i32 13
  %42 = load ptr, ptr %41, align 8
  %43 = getelementptr inbounds nuw %struct.return_code_msg, ptr %42, i32 0, i32 0
  %44 = load i32, ptr %43, align 4
  store i32 %44, ptr %9, align 4
  %45 = getelementptr inbounds nuw %struct.slurm_msg, ptr %8, i32 0, i32 13
  %46 = load ptr, ptr %45, align 8
  call void @slurm_free_return_code_msg(ptr noundef %46)
  br label %48

47:                                               ; preds = %17
  store i32 1000, ptr %9, align 4
  br label %48

48:                                               ; preds = %47, %40, %39
  %49 = load i32, ptr %9, align 4
  %50 = icmp ne i32 %49, 0
  br i1 %50, label %51, label %60

51:                                               ; preds = %48
  br label %52

52:                                               ; preds = %51
  %53 = load i32, ptr %9, align 4
  %54 = call ptr @__errno_location() #9
  store i32 %53, ptr %54, align 4
  %55 = load i32, ptr %9, align 4
  %56 = icmp ne i32 %55, 0
  %57 = select i1 %56, i32 -1, i32 0
  store i32 %57, ptr %4, align 4
  store i32 1, ptr %10, align 4
  br label %62

58:                                               ; No predecessors!
  br label %59

59:                                               ; preds = %58
  br label %60

60:                                               ; preds = %59, %48
  %61 = load i32, ptr %9, align 4
  store i32 %61, ptr %4, align 4
  store i32 1, ptr %10, align 4
  br label %62

62:                                               ; preds = %60, %52, %16
  call void @llvm.lifetime.end.p0(i64 4, ptr %9) #8
  call void @llvm.lifetime.end.p0(i64 424, ptr %8) #8
  %63 = load i32, ptr %4, align 4
  ret i32 %63
}

; Function Attrs: nounwind uwtable
define internal ptr @_load_step_thread(ptr noundef %0) #0 {
  %2 = alloca ptr, align 8
  %3 = alloca ptr, align 8
  %4 = alloca ptr, align 8
  %5 = alloca ptr, align 8
  %6 = alloca i32, align 4
  %7 = alloca ptr, align 8
  store ptr %0, ptr %2, align 8
  call void @llvm.lifetime.start.p0(i64 8, ptr %3) #8
  %8 = load ptr, ptr %2, align 8
  store ptr %8, ptr %3, align 8
  call void @llvm.lifetime.start.p0(i64 8, ptr %4) #8
  %9 = load ptr, ptr %3, align 8
  %10 = getelementptr inbounds nuw %struct.load_step_req_struct, ptr %9, i32 0, i32 0
  %11 = load ptr, ptr %10, align 8
  store ptr %11, ptr %4, align 8
  call void @llvm.lifetime.start.p0(i64 8, ptr %5) #8
  store ptr null, ptr %5, align 8
  call void @llvm.lifetime.start.p0(i64 4, ptr %6) #8
  %12 = load ptr, ptr %3, align 8
  %13 = getelementptr inbounds nuw %struct.load_step_req_struct, ptr %12, i32 0, i32 2
  %14 = load ptr, ptr %13, align 8
  %15 = load ptr, ptr %4, align 8
  %16 = call i32 @_load_cluster_steps(ptr noundef %14, ptr noundef %5, ptr noundef %15)
  store i32 %16, ptr %6, align 4
  %17 = icmp ne i32 %16, 0
  br i1 %17, label %21, label %18

18:                                               ; preds = %1
  %19 = load ptr, ptr %5, align 8
  %20 = icmp ne ptr %19, null
  br i1 %20, label %37, label %21

21:                                               ; preds = %18, %1
  br label %22

22:                                               ; preds = %21
  br label %23

23:                                               ; preds = %22
  %24 = call i32 @get_log_level()
  %25 = icmp sge i32 %24, 4
  br i1 %25, label %26, label %32

26:                                               ; preds = %23
  %27 = load ptr, ptr %4, align 8
  %28 = getelementptr inbounds nuw %struct.slurmdb_cluster_rec, ptr %27, i32 0, i32 12
  %29 = load ptr, ptr %28, align 8
  %30 = load i32, ptr %6, align 4
  %31 = call ptr @slurm_strerror(i32 noundef %30)
  call void (i32, ptr, ...) @log_var(i32 noundef 4, ptr noundef @.str.42, ptr noundef %29, ptr noundef %31)
  br label %32

32:                                               ; preds = %26, %23
  br label %33

33:                                               ; preds = %32
  br label %34

34:                                               ; preds = %33
  br label %35

35:                                               ; preds = %34
  br label %36

36:                                               ; preds = %35
  br label %53

37:                                               ; preds = %18
  call void @llvm.lifetime.start.p0(i64 8, ptr %7) #8
  %38 = call ptr @slurm_xcalloc(i64 noundef 1, i64 noundef 16, i1 noundef zeroext true, i1 noundef zeroext false, ptr noundef @.str.27, i32 noundef 426, ptr noundef @__func__._load_step_thread)
  store ptr %38, ptr %7, align 8
  %39 = load ptr, ptr %3, align 8
  %40 = getelementptr inbounds nuw %struct.load_step_req_struct, ptr %39, i32 0, i32 1
  %41 = load i8, ptr %40, align 8, !range !12, !noundef !13
  %42 = trunc i8 %41 to i1
  %43 = load ptr, ptr %7, align 8
  %44 = getelementptr inbounds nuw %struct.load_step_resp_struct, ptr %43, i32 0, i32 0
  %45 = zext i1 %42 to i8
  store i8 %45, ptr %44, align 8
  %46 = load ptr, ptr %5, align 8
  %47 = load ptr, ptr %7, align 8
  %48 = getelementptr inbounds nuw %struct.load_step_resp_struct, ptr %47, i32 0, i32 1
  store ptr %46, ptr %48, align 8
  %49 = load ptr, ptr %3, align 8
  %50 = getelementptr inbounds nuw %struct.load_step_req_struct, ptr %49, i32 0, i32 3
  %51 = load ptr, ptr %50, align 8
  %52 = load ptr, ptr %7, align 8
  call void @list_append(ptr noundef %51, ptr noundef %52)
  call void @llvm.lifetime.end.p0(i64 8, ptr %7) #8
  br label %53

53:                                               ; preds = %37, %36
  call void @slurm_xfree(ptr noundef %2)
  call void @llvm.lifetime.end.p0(i64 4, ptr %6) #8
  call void @llvm.lifetime.end.p0(i64 8, ptr %5) #8
  call void @llvm.lifetime.end.p0(i64 8, ptr %4) #8
  call void @llvm.lifetime.end.p0(i64 8, ptr %3) #8
  ret ptr null
}