; Function Attrs: nounwind uwtable
define internal noalias noundef ptr @_load_step_thread(ptr noundef %0) #0 {
  %2 = alloca %struct.slurm_msg, align 8
  %3 = alloca ptr, align 8
  store ptr %0, ptr %3, align 8
  %4 = load ptr, ptr %0, align 8
  %5 = getelementptr inbounds nuw i8, ptr %0, i64 16
  %6 = load ptr, ptr %5, align 8
  call void @llvm.lifetime.start.p0(i64 424, ptr nonnull %2) #11
  call void @slurm_msg_t_init(ptr noundef nonnull %2) #11
  %7 = call i32 @slurm_send_recv_controller_msg(ptr noundef %6, ptr noundef nonnull %2, ptr noundef %4) #11
  %8 = icmp slt i32 %7, 0
  br i1 %8, label %_load_cluster_steps.exit.thread, label %9

9:                                                ; preds = %1
  %10 = getelementptr inbounds nuw i8, ptr %2, i64 212
  %11 = load i16, ptr %10, align 4
  switch i16 %11, label %.thread16.i [
    i16 2006, label %12
    i16 8001, label %19
  ]

12:                                               ; preds = %9
  %13 = getelementptr inbounds nuw i8, ptr %2, i64 200
  %14 = load ptr, ptr %13, align 8
  store ptr null, ptr %13, align 8
  %15 = getelementptr inbounds nuw i8, ptr %14, i64 24
  %16 = load ptr, ptr %15, align 8
  %.not.i = icmp eq ptr %16, null
  br i1 %.not.i, label %_load_cluster_steps.exit, label %17

17:                                               ; preds = %12
  %18 = call i32 @list_for_each(ptr noundef nonnull %16, ptr noundef nonnull @_get_stepmgr_steps, ptr noundef nonnull %14) #11
  br label %_load_cluster_steps.exit

19:                                               ; preds = %9
  %20 = getelementptr inbounds nuw i8, ptr %2, i64 200
  %21 = load ptr, ptr %20, align 8
  %22 = load i32, ptr %21, align 4
  call void @slurm_free_return_code_msg(ptr noundef nonnull %21) #11
  %.not13.i = icmp eq i32 %22, 0
  br i1 %.not13.i, label %_load_cluster_steps.exit.thread, label %.thread16.i

.thread16.i:                                      ; preds = %19, %9
  %.019.i = phi i32 [ %22, %19 ], [ 1000, %9 ]
  %23 = tail call ptr @__errno_location() #12
  store i32 %.019.i, ptr %23, align 4
  br label %_load_cluster_steps.exit.thread

_load_cluster_steps.exit.thread:                  ; preds = %.thread16.i, %1, %19
  %.011.i.ph = phi i32 [ 0, %19 ], [ -1, %1 ], [ -1, %.thread16.i ]
  call void @llvm.lifetime.end.p0(i64 424, ptr nonnull %2) #11
  %24 = call i32 @get_log_level() #11
  %25 = icmp sgt i32 %24, 3
  br i1 %25, label %32, label %36

_load_cluster_steps.exit:                         ; preds = %12, %17
  call void @llvm.lifetime.end.p0(i64 424, ptr nonnull %2) #11
  %26 = call ptr @slurm_xcalloc(i64 noundef 1, i64 noundef 16, i1 noundef zeroext true, i1 noundef zeroext false, ptr noundef nonnull @.str.27, i32 noundef 426, ptr noundef nonnull @__func__._load_step_thread) #11
  %27 = getelementptr inbounds nuw i8, ptr %0, i64 8
  %28 = load i8, ptr %27, align 8, !range !16, !noundef !17
  store i8 %28, ptr %26, align 8
  %29 = getelementptr inbounds nuw i8, ptr %26, i64 8
  store ptr %14, ptr %29, align 8
  %30 = getelementptr inbounds nuw i8, ptr %0, i64 24
  %31 = load ptr, ptr %30, align 8
  call void @list_append(ptr noundef %31, ptr noundef nonnull %26) #11
  br label %36

32:                                               ; preds = %_load_cluster_steps.exit.thread
  %33 = getelementptr inbounds nuw i8, ptr %4, i64 280
  %34 = load ptr, ptr %33, align 8
  %35 = call ptr @slurm_strerror(i32 noundef %.011.i.ph) #11
  call void (i32, ptr, ...) @log_var(i32 noundef 4, ptr noundef nonnull @.str.42, ptr noundef %34, ptr noundef %35) #11
  br label %36

36:                                               ; preds = %_load_cluster_steps.exit.thread, %32, %_load_cluster_steps.exit
  call void @slurm_xfree(ptr noundef nonnull %3) #11
  ret ptr null
}